; Function Attrs: nounwind uwtable
define hidden zeroext i1 @SDL_GetSurfaceColorKey_REAL(ptr noundef readonly captures(address_is_null) %0, ptr noundef writeonly captures(address_is_null) %1) local_unnamed_addr #2 {
  %.not = icmp eq ptr %1, null
  br i1 %.not, label %4, label %3

3:                                                ; preds = %2
  store i32 0, ptr %1, align 4
  br label %4

4:                                                ; preds = %3, %2
  %.not.i = icmp eq ptr %0, null
  br i1 %.not.i, label %SDL_SurfaceValid.exit.thread, label %SDL_SurfaceValid.exit

SDL_SurfaceValid.exit:                            ; preds = %4
  %5 = getelementptr inbounds nuw i8, ptr %0, i64 40
  %6 = load ptr, ptr %5, align 8
  %7 = icmp eq ptr %6, @SDL_surface_magic
  br i1 %7, label %9, label %SDL_SurfaceValid.exit.thread

SDL_SurfaceValid.exit.thread:                     ; preds = %4, %SDL_SurfaceValid.exit
  %8 = tail call zeroext i1 (ptr, ...) @SDL_SetError_REAL(ptr noundef nonnull @.str, ptr noundef nonnull @.str.5) #10
  br label %19

9:                                                ; preds = %SDL_SurfaceValid.exit
  %10 = getelementptr inbounds nuw i8, ptr %0, i64 256
  %11 = load i32, ptr %10, align 8
  %12 = and i32 %11, 1024
  %.not9 = icmp eq i32 %12, 0
  br i1 %.not9, label %13, label %15

13:                                               ; preds = %9
  %14 = tail call zeroext i1 (ptr, ...) @SDL_SetError_REAL(ptr noundef nonnull @.str.12) #10
  br label %19

15:                                               ; preds = %9
  br i1 %.not, label %19, label %16

16:                                               ; preds = %15
  %17 = getelementptr inbounds nuw i8, ptr %0, i64 260
  %18 = load i32, ptr %17, align 4
  store i32 %18, ptr %1, align 4
  br label %19

19:                                               ; preds = %15, %16, %13, %SDL_SurfaceValid.exit.thread
  %.0 = phi i1 [ %14, %13 ], [ %8, %SDL_SurfaceValid.exit.thread ], [ true, %16 ], [ true, %15 ]
  ret i1 %.0
}